target datalayout = "e-m:e-p270:32:32-p271:32:32-p272:64:64-i64:64-i128:128-f80:128-n8:16:32:64-S128"
target triple = "x86_64-pc-linux-gnu"

; Function Attrs: inlinehint mustprogress nounwind uwtable
define linkonce_odr noundef float @_ZSt4sqrtf(float noundef %0) #2 comdat {
  %2 = alloca float, align 4
  store float %0, ptr %2, align 4, !tbaa !14
  %3 = load float, ptr %2, align 4, !tbaa !14
  %4 = call float @sqrtf(float noundef %3) #12, !tbaa !16
  ret float %4
}

; Function Attrs: mustprogress uwtable
define hidden noundef zeroext i1 @_Z21fed_is_prime_internalRKi(ptr noundef nonnull align 4 dereferenceable(4) %0) #0 {
  %2 = alloca i1, align 1
  %3 = alloca ptr, align 8
  %4 = alloca i8, align 1
  %5 = alloca i32, align 4
  %6 = alloca i32, align 4
  %7 = alloca i32, align 4
  store ptr %0, ptr %3, align 8, !tbaa !8
  call void @llvm.lifetime.start.p0(i64 1, ptr %4) #12
  store i8 0, ptr %4, align 1, !tbaa !18
  %8 = load ptr, ptr %3, align 8, !tbaa !8
  %9 = load i32, ptr %8, align 4, !tbaa !16
  %10 = icmp sle i32 %9, 1
  br i1 %10, label %11, label %12

11:                                               ; preds = %1
  store i1 false, ptr %2, align 1
  store i32 1, ptr %5, align 4
  br label %78

12:                                               ; preds = %1
  %13 = load ptr, ptr %3, align 8, !tbaa !8
  %14 = load i32, ptr %13, align 4, !tbaa !16
  %15 = icmp eq i32 %14, 1
  br i1 %15, label %32, label %16

16:                                               ; preds = %12
  %17 = load ptr, ptr %3, align 8, !tbaa !8
  %18 = load i32, ptr %17, align 4, !tbaa !16
  %19 = icmp eq i32 %18, 2
  br i1 %19, label %32, label %20

20:                                               ; preds = %16
  %21 = load ptr, ptr %3, align 8, !tbaa !8
  %22 = load i32, ptr %21, align 4, !tbaa !16
  %23 = icmp eq i32 %22, 3
  br i1 %23, label %32, label %24

24:                                               ; preds = %20
  %25 = load ptr, ptr %3, align 8, !tbaa !8
  %26 = load i32, ptr %25, align 4, !tbaa !16
  %27 = icmp eq i32 %26, 5
  br i1 %27, label %32, label %28

28:                                               ; preds = %24
  %29 = load ptr, ptr %3, align 8, !tbaa !8
  %30 = load i32, ptr %29, align 4, !tbaa !16
  %31 = icmp eq i32 %30, 7
  br i1 %31, label %32, label %33

32:                                               ; preds = %28, %24, %20, %16, %12
  store i1 true, ptr %2, align 1
  store i32 1, ptr %5, align 4
  br label %78

33:                                               ; preds = %28
  %34 = load ptr, ptr %3, align 8, !tbaa !8
  %35 = load i32, ptr %34, align 4, !tbaa !16
  %36 = srem i32 %35, 2
  %37 = icmp eq i32 %36, 0
  br i1 %37, label %53, label %38

38:                                               ; preds = %33
  %39 = load ptr, ptr %3, align 8, !tbaa !8
  %40 = load i32, ptr %39, align 4, !tbaa !16
  %41 = srem i32 %40, 3
  %42 = icmp eq i32 %41, 0
  br i1 %42, label %53, label %43

43:                                               ; preds = %38
  %44 = load ptr, ptr %3, align 8, !tbaa !8
  %45 = load i32, ptr %44, align 4, !tbaa !16
  %46 = srem i32 %45, 5
  %47 = icmp eq i32 %46, 0
  br i1 %47, label %53, label %48

48:                                               ; preds = %43
  %49 = load ptr, ptr %3, align 8, !tbaa !8
  %50 = load i32, ptr %49, align 4, !tbaa !16
  %51 = srem i32 %50, 7
  %52 = icmp eq i32 %51, 0
  br i1 %52, label %53, label %54

53:                                               ; preds = %48, %43, %38, %33
  store i1 false, ptr %2, align 1
  store i32 1, ptr %5, align 4
  br label %78

54:                                               ; preds = %48
  store i8 1, ptr %4, align 1, !tbaa !18
  call void @llvm.lifetime.start.p0(i64 4, ptr %6) #12
  %55 = load ptr, ptr %3, align 8, !tbaa !8
  %56 = load i32, ptr %55, align 4, !tbaa !16
  %57 = sitofp i32 %56 to float
  %58 = fadd float 1.000000e+00, %57
  %59 = call noundef float @_ZSt4sqrtf(float noundef %58)
  %60 = fptosi float %59 to i32
  store i32 %60, ptr %6, align 4, !tbaa !16
  call void @llvm.lifetime.start.p0(i64 4, ptr %7) #12
  store i32 11, ptr %7, align 4, !tbaa !16
  br label %61

61:                                               ; preds = %72, %54
  %62 = load i32, ptr %7, align 4, !tbaa !16
  %63 = load i32, ptr %6, align 4, !tbaa !16
  %64 = icmp sle i32 %62, %63
  br i1 %64, label %65, label %75

65:                                               ; preds = %61
  %66 = load ptr, ptr %3, align 8, !tbaa !8
  %67 = load i32, ptr %66, align 4, !tbaa !16
  %68 = load i32, ptr %7, align 4, !tbaa !16
  %69 = srem i32 %67, %68
  %70 = icmp eq i32 %69, 0
  br i1 %70, label %71, label %72

71:                                               ; preds = %65
  store i8 0, ptr %4, align 1, !tbaa !18
  br label %72

72:                                               ; preds = %71, %65
  %73 = load i32, ptr %7, align 4, !tbaa !16
  %74 = add nsw i32 %73, 2
  store i32 %74, ptr %7, align 4, !tbaa !16
  br label %61, !llvm.loop !34

75:                                               ; preds = %61
  %76 = load i8, ptr %4, align 1, !tbaa !18, !range !20, !noundef !21
  %77 = trunc i8 %76 to i1
  store i1 %77, ptr %2, align 1
  store i32 1, ptr %5, align 4
  call void @llvm.lifetime.end.p0(i64 4, ptr %7) #12
  call void @llvm.lifetime.end.p0(i64 4, ptr %6) #12
  br label %78

78:                                               ; preds = %75, %53, %32, %11
  call void @llvm.lifetime.end.p0(i64 1, ptr %4) #12
  %79 = load i1, ptr %2, align 1
  ret i1 %79
}