; Function Attrs: mustprogress nofree norecurse nosync nounwind willreturn memory(argmem: read) uwtable
define hidden noundef zeroext i1 @_Z21fed_is_prime_internalRKi(ptr noundef nonnull readonly align 4 captures(none) dereferenceable(4) %0) local_unnamed_addr #4 {
  %2 = load i32, ptr %0, align 4, !tbaa !7
  %3 = icmp slt i32 %2, 2
  br i1 %3, label %.loopexit, label %4

4:                                                ; preds = %1
  %switch.tableidx = add nsw i32 %2, -2
  %5 = icmp ult i32 %switch.tableidx, 6
  br i1 %5, label %switch.hole_check, label %6

6:                                                ; preds = %switch.hole_check, %4
  %7 = and i32 %2, 1
  %8 = icmp eq i32 %7, 0
  %9 = urem i32 %2, 3
  %10 = icmp eq i32 %9, 0
  %or.cond = or i1 %8, %10
  %11 = urem i32 %2, 5
  %12 = icmp eq i32 %11, 0
  %or.cond22 = or i1 %12, %or.cond
  %13 = urem i32 %2, 7
  %14 = icmp eq i32 %13, 0
  %or.cond24 = or i1 %14, %or.cond22
  br i1 %or.cond24, label %.loopexit, label %15

15:                                               ; preds = %6
  %16 = uitofp nneg i32 %2 to float
  %17 = fadd float %16, 1.000000e+00
  %sqrt = tail call float @llvm.sqrt.f32(float %17)
  %18 = fptosi float %sqrt to i32
  %.not25 = icmp slt i32 %18, 11
  br i1 %.not25, label %.loopexit, label %.lr.ph

.lr.ph:                                           ; preds = %15, %.lr.ph
  %.027 = phi i32 [ %21, %.lr.ph ], [ 11, %15 ]
  %.01826 = phi i1 [ %spec.select, %.lr.ph ], [ true, %15 ]
  %19 = urem i32 %2, %.027
  %20 = icmp ne i32 %19, 0
  %spec.select = select i1 %20, i1 %.01826, i1 false
  %21 = add nuw nsw i32 %.027, 2
  %.not = icmp sgt i32 %21, %18
  br i1 %.not, label %.loopexit, label %.lr.ph, !llvm.loop !22

switch.hole_check:                                ; preds = %4
  %switch.maskindex = trunc nuw i32 %switch.tableidx to i8
  %switch.shifted = lshr i8 43, %switch.maskindex
  %switch.lobit = trunc i8 %switch.shifted to i1
  br i1 %switch.lobit, label %.loopexit, label %6

.loopexit:                                        ; preds = %.lr.ph, %switch.hole_check, %15, %6, %1
  %.017 = phi i1 [ false, %1 ], [ false, %6 ], [ true, %15 ], [ true, %switch.hole_check ], [ %spec.select, %.lr.ph ]
  ret i1 %.017
}